(dp0
VAustria
p1
g1
sVBelgia
p2
VBelgium
p3
sVBia\u0142oru\u015b
p4
VBelarus
p5
sVBu\u0142garia
p6
VBulgaria
p7
sVChorwacja
p8
VCroatia
p9
sVCzechy
p10
VCzech Republic
p11
sVDania
p12
VDenmark
p13
sVEstonia
p14
g14
sVFinlandia
p15
VFinland
p16
sVFrancja
p17
VFrance
p18
sVGrecja
p19
VGreece
p20
sVHiszpania
p21
VSpain
p22
sVHolandia
p23
VNetherlands
p24
sVInny
p25
VOther
p26
sVIrlandia
p27
VIreland
p28
sVIslandia
p29
VIceland
p30
sVKanada
p31
VCanada
p32
sVLiechtenstein
p33
g33
sVLitwa
p34
VLithuania
p35
sVLuksemburg
p36
VLuxembourg
p37
sVMonako
p38
VMonaco
p39
sVNiemcy
p40
VGermany
p41
sVNorwegia
p42
VNorway
p43
sVPolska
p44
VPoland
p45
sVRosja
p46
VRussia
p47
sVRumunia
p48
VRomania
p49
sVStany Zjednoczone
p50
VUnited States
p51
sVSzwajcaria
p52
VSwitzerland
p53
sVSzwecja
p54
VSweden
p55
sVS\u0142owacja
p56
VSlovakia
p57
sVS\u0142owenia
p58
VSlovenia
p59
sVTurcja
p60
VTurkey
p61
sVUkraina
p62
VUkraine
p63
sVWielka Brytania
p64
VGreat Britain
p65
sVW\u0119gry
p66
VHungary
p67
sVW\u0142ochy
p68
VItaly
p69
sV\u0141otwa
p70
VLatvia
p71
s.